target datalayout = "e-m:e-p270:32:32-p271:32:32-p272:64:64-i64:64-i128:128-f80:128-n8:16:32:64-S128"
target triple = "x86_64-unknown-linux-gnu"

%struct.BdrvDirtyBitmap = type { ptr, ptr, i8, ptr, ptr, i64, i8, i32, i8, i8, i8, i8, %struct.anon }
%struct.anon = type { ptr, ptr }

@.str.1 = private unnamed_addr constant [29 x i8] c"../qemu/block/dirty-bitmap.c\00", align 1
@.str.21 = private unnamed_addr constant [36 x i8] c"!bdrv_dirty_bitmap_readonly(bitmap)\00", align 1
@__PRETTY_FUNCTION__.bdrv_restore_dirty_bitmap = private unnamed_addr constant [61 x i8] c"void bdrv_restore_dirty_bitmap(BdrvDirtyBitmap *, HBitmap *)\00", align 1
@.str.22 = private unnamed_addr constant [22 x i8] c"qemu_in_main_thread()\00", align 1

; Function Attrs: nounwind sspstrong uwtable
define dso_local zeroext i1 @bdrv_dirty_bitmap_readonly(ptr noundef %bitmap) #0 {
entry:
  %bitmap.addr = alloca ptr, align 8
  store ptr %bitmap, ptr %bitmap.addr, align 8
  %0 = load ptr, ptr %bitmap.addr, align 8
  %readonly = getelementptr inbounds %struct.BdrvDirtyBitmap, ptr %0, i32 0, i32 8
  %1 = load i8, ptr %readonly, align 8
  %tobool = trunc i8 %1 to i1
  ret i1 %tobool
}

; Function Attrs: nounwind sspstrong uwtable
define dso_local void @bdrv_restore_dirty_bitmap(ptr noundef %bitmap, ptr noundef %backup) #0 {
entry:
  %bitmap.addr = alloca ptr, align 8
  %backup.addr = alloca ptr, align 8
  %tmp = alloca ptr, align 8
  store ptr %bitmap, ptr %bitmap.addr, align 8
  store ptr %backup, ptr %backup.addr, align 8
  %0 = load ptr, ptr %bitmap.addr, align 8
  %bitmap1 = getelementptr inbounds %struct.BdrvDirtyBitmap, ptr %0, i32 0, i32 1
  %1 = load ptr, ptr %bitmap1, align 8
  store ptr %1, ptr %tmp, align 8
  %2 = load ptr, ptr %bitmap.addr, align 8
  %call = call zeroext i1 @bdrv_dirty_bitmap_readonly(ptr noundef %2)
  br i1 %call, label %if.else, label %if.then

if.then:                                          ; preds = %entry
  br label %if.end

if.else:                                          ; preds = %entry
  call void @__assert_fail(ptr noundef @.str.21, ptr noundef @.str.1, i32 noundef 593, ptr noundef @__PRETTY_FUNCTION__.bdrv_restore_dirty_bitmap) #11
  unreachable

if.end:                                           ; preds = %if.then
  br label %do.body

do.body:                                          ; preds = %if.end
  %call2 = call zeroext i1 @qemu_in_main_thread()
  br i1 %call2, label %if.then3, label %if.else4

if.then3:                                         ; preds = %do.body
  br label %if.end5

if.else4:                                         ; preds = %do.body
  call void @__assert_fail(ptr noundef @.str.22, ptr noundef @.str.1, i32 noundef 594, ptr noundef @__PRETTY_FUNCTION__.bdrv_restore_dirty_bitmap) #11
  unreachable

if.end5:                                          ; preds = %if.then3
  br label %do.end

do.end:                                           ; preds = %if.end5
  %3 = load ptr, ptr %backup.addr, align 8
  %4 = load ptr, ptr %bitmap.addr, align 8
  %bitmap6 = getelementptr inbounds %struct.BdrvDirtyBitmap, ptr %4, i32 0, i32 1
  store ptr %3, ptr %bitmap6, align 8
  %5 = load ptr, ptr %tmp, align 8
  call void @hbitmap_free(ptr noundef %5)
  ret void
}