; Function Attrs: nounwind sspstrong uwtable
define dso_local void @bdrv_restore_dirty_bitmap(ptr noundef captures(none) %bitmap, ptr noundef %backup) local_unnamed_addr #0 {
entry:
  %bitmap1 = getelementptr inbounds nuw i8, ptr %bitmap, i64 8
  %0 = load ptr, ptr %bitmap1, align 8
  %readonly.i = getelementptr inbounds nuw i8, ptr %bitmap, i64 56
  %1 = load i8, ptr %readonly.i, align 8
  %tobool.i = trunc i8 %1 to i1
  br i1 %tobool.i, label %if.else, label %do.body

if.else:                                          ; preds = %entry
  tail call void @__assert_fail(ptr noundef nonnull @.str.21, ptr noundef nonnull @.str.1, i32 noundef 593, ptr noundef nonnull @__PRETTY_FUNCTION__.bdrv_restore_dirty_bitmap) #15
  unreachable

do.body:                                          ; preds = %entry
  %call2 = tail call zeroext i1 @qemu_in_main_thread() #14
  br i1 %call2, label %do.end, label %if.else4

if.else4:                                         ; preds = %do.body
  tail call void @__assert_fail(ptr noundef nonnull @.str.22, ptr noundef nonnull @.str.1, i32 noundef 594, ptr noundef nonnull @__PRETTY_FUNCTION__.bdrv_restore_dirty_bitmap) #15
  unreachable

do.end:                                           ; preds = %do.body
  store ptr %backup, ptr %bitmap1, align 8
  tail call void @hbitmap_free(ptr noundef %0) #14
  ret void
}